target datalayout = "e-m:e-p270:32:32-p271:32:32-p272:64:64-i64:64-i128:128-f80:128-n8:16:32:64-S128"
target triple = "x86_64-pc-linux-gnu"

%struct.H5FL_reg_head_t = type { i8, i32, i32, ptr, i64, ptr }
%struct.H5MF_free_section_t = type { %struct.H5FS_section_info_t }
%struct.H5FS_section_info_t = type { i64, i64, i32, i32 }

@H5_H5MF_free_section_t_reg_free_list = internal global %struct.H5FL_reg_head_t { i8 0, i32 0, i32 0, ptr @.str.2, i64 24, ptr null }, align 8
@.str = private unnamed_addr constant [105 x i8] c"generated/home/dtcxzyw/WorkSpace/Projects/compilers/llvm-opt-benchmark/bench/hdf5/hdf5/src/H5MFsection.c\00", align 1
@H5E_RESOURCE_g = external global i64, align 8
@__func__.H5MF__sect_simple_merge = private unnamed_addr constant [24 x i8] c"H5MF__sect_simple_merge\00", align 1
@H5E_CANTRELEASE_g = external global i64, align 8
@.str.4 = private unnamed_addr constant [24 x i8] c"can't free section node\00", align 1

; Function Attrs: nounwind uwtable
define i32 @H5MF__sect_free(ptr noundef %0) #0 {
  %2 = alloca ptr, align 8
  %3 = alloca ptr, align 8
  store ptr %0, ptr %2, align 8
  %4 = load ptr, ptr %2, align 8
  store ptr %4, ptr %3, align 8
  %5 = load ptr, ptr %3, align 8
  %6 = call ptr @H5FL_reg_free(ptr noundef @H5_H5MF_free_section_t_reg_free_list, ptr noundef %5)
  store ptr %6, ptr %3, align 8
  ret i32 0
}

; Function Attrs: nounwind uwtable
define internal i32 @H5MF__sect_simple_merge(ptr noundef %0, ptr noundef %1, ptr noundef %2) #0 {
  %4 = alloca ptr, align 8
  %5 = alloca ptr, align 8
  %6 = alloca ptr, align 8
  %7 = alloca ptr, align 8
  %8 = alloca ptr, align 8
  %9 = alloca i32, align 4
  %10 = alloca i8, align 1
  store ptr %0, ptr %4, align 8
  store ptr %1, ptr %5, align 8
  store ptr %2, ptr %6, align 8
  %11 = load ptr, ptr %4, align 8
  store ptr %11, ptr %7, align 8
  %12 = load ptr, ptr %5, align 8
  store ptr %12, ptr %8, align 8
  store i32 0, ptr %9, align 4
  store i8 0, ptr %10, align 1
  %13 = load ptr, ptr %8, align 8
  %14 = getelementptr inbounds %struct.H5MF_free_section_t, ptr %13, i32 0, i32 0
  %15 = getelementptr inbounds %struct.H5FS_section_info_t, ptr %14, i32 0, i32 1
  %16 = load i64, ptr %15, align 8
  %17 = load ptr, ptr %7, align 8
  %18 = load ptr, ptr %17, align 8
  %19 = getelementptr inbounds %struct.H5MF_free_section_t, ptr %18, i32 0, i32 0
  %20 = getelementptr inbounds %struct.H5FS_section_info_t, ptr %19, i32 0, i32 1
  %21 = load i64, ptr %20, align 8
  %22 = add i64 %21, %16
  store i64 %22, ptr %20, align 8
  %23 = load ptr, ptr %8, align 8
  %24 = call i32 @H5MF__sect_free(ptr noundef %23)
  %25 = icmp slt i32 %24, 0
  br i1 %25, label %26, label %41

26:                                               ; preds = %3
  br label %27

27:                                               ; preds = %26
  br label %28

28:                                               ; preds = %27
  br label %29

29:                                               ; preds = %28
  %30 = load i64, ptr @H5E_RESOURCE_g, align 8
  %31 = load i64, ptr @H5E_CANTRELEASE_g, align 8
  %32 = call i32 (ptr, ptr, i32, i64, i64, ptr, ...) @H5E_printf_stack(ptr noundef @.str, ptr noundef @__func__.H5MF__sect_simple_merge, i32 noundef 405, i64 noundef %30, i64 noundef %31, ptr noundef @.str.4)
  br label %33

33:                                               ; preds = %29
  store i8 1, ptr %10, align 1
  %34 = load i8, ptr %10, align 1
  %35 = trunc i8 %34 to i1
  %36 = zext i1 %35 to i8
  store i8 %36, ptr %10, align 1
  br label %37

37:                                               ; preds = %33
  br label %38

38:                                               ; preds = %37
  store i32 -1, ptr %9, align 4
  br label %42

39:                                               ; No predecessors!
  br label %40

40:                                               ; preds = %39
  br label %41

41:                                               ; preds = %40, %3
  br label %42

42:                                               ; preds = %41, %38
  %43 = load i32, ptr %9, align 4
  ret i32 %43
}